; Function Attrs: nofree norecurse nosync nounwind memory(argmem: readwrite) uwtable
define internal i32 @pg_eucjp2wchar_with_len(ptr noundef readonly captures(none) %0, ptr noundef writeonly captures(none) %1, i32 noundef %2) #2 {
  %4 = icmp sgt i32 %2, 0
  br i1 %4, label %.lr.ph.i, label %pg_euc2wchar_with_len.exit

.lr.ph.i:                                         ; preds = %3, %39
  %.042.i = phi i32 [ %42, %39 ], [ 0, %3 ]
  %.03441.i = phi i32 [ %40, %39 ], [ %2, %3 ]
  %.03540.i = phi ptr [ %41, %39 ], [ %1, %3 ]
  %.03639.i = phi ptr [ %.137.i, %39 ], [ %0, %3 ]
  %5 = load i8, ptr %.03639.i, align 1
  %6 = zext i8 %5 to i32
  %.not.i = icmp eq i8 %5, 0
  br i1 %.not.i, label %pg_euc2wchar_with_len.exit, label %7

7:                                                ; preds = %.lr.ph.i
  %8 = icmp eq i8 %5, -114
  %9 = icmp ne i32 %.03441.i, 1
  %or.cond.i = and i1 %9, %8
  br i1 %or.cond.i, label %10, label %16

10:                                               ; preds = %7
  %11 = getelementptr inbounds nuw i8, ptr %.03639.i, i64 1
  %12 = getelementptr inbounds nuw i8, ptr %.03639.i, i64 2
  %13 = load i8, ptr %11, align 1
  %14 = zext i8 %13 to i32
  %15 = or disjoint i32 %14, 36352
  br label %39

16:                                               ; preds = %7
  %17 = icmp eq i8 %5, -113
  %18 = icmp samesign ugt i32 %.03441.i, 2
  %or.cond3.i = and i1 %18, %17
  br i1 %or.cond3.i, label %19, label %30

19:                                               ; preds = %16
  %20 = getelementptr inbounds nuw i8, ptr %.03639.i, i64 1
  %21 = getelementptr inbounds nuw i8, ptr %.03639.i, i64 2
  %22 = load i8, ptr %20, align 1
  %23 = zext i8 %22 to i32
  %24 = shl nuw nsw i32 %23, 8
  %25 = or disjoint i32 %24, 9371648
  store i32 %25, ptr %.03540.i, align 4
  %26 = getelementptr inbounds nuw i8, ptr %.03639.i, i64 3
  %27 = load i8, ptr %21, align 1
  %28 = zext i8 %27 to i32
  %29 = or disjoint i32 %25, %28
  br label %39

30:                                               ; preds = %16
  %31 = icmp slt i8 %5, 0
  %or.cond5.i = and i1 %9, %31
  %32 = getelementptr inbounds nuw i8, ptr %.03639.i, i64 1
  br i1 %or.cond5.i, label %33, label %39

33:                                               ; preds = %30
  %34 = shl nuw nsw i32 %6, 8
  store i32 %34, ptr %.03540.i, align 4
  %35 = getelementptr inbounds nuw i8, ptr %.03639.i, i64 2
  %36 = load i8, ptr %32, align 1
  %37 = zext i8 %36 to i32
  %38 = or disjoint i32 %34, %37
  br label %39

39:                                               ; preds = %33, %30, %19, %10
  %.sink47.i = phi i32 [ %29, %19 ], [ %38, %33 ], [ %15, %10 ], [ %6, %30 ]
  %.sink.i = phi i32 [ -3, %19 ], [ -2, %33 ], [ -2, %10 ], [ -1, %30 ]
  %.137.i = phi ptr [ %26, %19 ], [ %35, %33 ], [ %12, %10 ], [ %32, %30 ]
  store i32 %.sink47.i, ptr %.03540.i, align 4
  %40 = add nsw i32 %.sink.i, %.03441.i
  %41 = getelementptr inbounds nuw i8, ptr %.03540.i, i64 4
  %42 = add i32 %.042.i, 1
  %43 = icmp sgt i32 %40, 0
  br i1 %43, label %.lr.ph.i, label %pg_euc2wchar_with_len.exit, !llvm.loop !7

pg_euc2wchar_with_len.exit:                       ; preds = %.lr.ph.i, %39, %3
  %.035.lcssa.i = phi ptr [ %1, %3 ], [ %.03540.i, %.lr.ph.i ], [ %41, %39 ]
  %.0.lcssa.i = phi i32 [ 0, %3 ], [ %.042.i, %.lr.ph.i ], [ %42, %39 ]
  store i32 0, ptr %.035.lcssa.i, align 4
  ret i32 %.0.lcssa.i
}